target datalayout = "e-m:e-p270:32:32-p271:32:32-p272:64:64-i64:64-i128:128-f80:128-n8:16:32:64-S128"
target triple = "x86_64-pc-linux-gnu"

%struct.test_fixture = type { ptr, i32, ptr, ptr, ptr, ptr, i32 }

@srvcert = internal global ptr null, align 8
@libctx = internal global ptr null, align 8
@test_time_after_expiration = internal global i64 0, align 8
@.str.14 = private unnamed_addr constant [31 x i8] c"../openssl/test/cmp_vfy_test.c\00", align 1
@ir_protected_f = internal global ptr null, align 8
@.str.75 = private unnamed_addr constant [18 x i8] c"fixture->expected\00", align 1
@__func__.test_validate_msg_signature_partial_chain = private unnamed_addr constant [42 x i8] c"test_validate_msg_signature_partial_chain\00", align 1
@.str.77 = private unnamed_addr constant [51 x i8] c"fixture->msg = load_pkimsg(ir_protected_f, libctx)\00", align 1
@.str.78 = private unnamed_addr constant [67 x i8] c"ossl_cmp_msg_check_update(fixture->cmp_ctx, fixture->msg, NULL, 0)\00", align 1
@.str.79 = private unnamed_addr constant [10 x i8] c"validated\00", align 1
@.str.80 = private unnamed_addr constant [14 x i8] c"fixture->cert\00", align 1

; Function Attrs: nounwind uwtable
define internal i32 @execute_validate_msg_test(ptr noundef %0) #0 {
  %2 = alloca ptr, align 8
  %3 = alloca i32, align 4
  %4 = alloca ptr, align 8
  store ptr %0, ptr %2, align 8, !tbaa !24
  call void @llvm.lifetime.start.p0(i64 4, ptr %3) #7
  %5 = load ptr, ptr %2, align 8, !tbaa !24
  %6 = getelementptr inbounds nuw %struct.test_fixture, ptr %5, i32 0, i32 1
  %7 = load i32, ptr %6, align 8, !tbaa !27
  %8 = load ptr, ptr %2, align 8, !tbaa !24
  %9 = getelementptr inbounds nuw %struct.test_fixture, ptr %8, i32 0, i32 2
  %10 = load ptr, ptr %9, align 8, !tbaa !32
  %11 = load ptr, ptr %2, align 8, !tbaa !24
  %12 = getelementptr inbounds nuw %struct.test_fixture, ptr %11, i32 0, i32 3
  %13 = load ptr, ptr %12, align 8, !tbaa !31
  %14 = call i32 @ossl_cmp_msg_check_update(ptr noundef %10, ptr noundef %13, ptr noundef null, i32 noundef 0)
  %15 = call i32 @test_int_eq(ptr noundef @.str.14, i32 noundef 139, ptr noundef @.str.75, ptr noundef @.str.78, i32 noundef %7, i32 noundef %14)
  store i32 %15, ptr %3, align 4, !tbaa !26
  call void @llvm.lifetime.start.p0(i64 8, ptr %4) #7
  %16 = load ptr, ptr %2, align 8, !tbaa !24
  %17 = getelementptr inbounds nuw %struct.test_fixture, ptr %16, i32 0, i32 2
  %18 = load ptr, ptr %17, align 8, !tbaa !32
  %19 = call ptr @OSSL_CMP_CTX_get0_validatedSrvCert(ptr noundef %18)
  store ptr %19, ptr %4, align 8, !tbaa !4
  %20 = load i32, ptr %3, align 4, !tbaa !26
  %21 = icmp ne i32 %20, 0
  br i1 %21, label %22, label %36

22:                                               ; preds = %1
  %23 = load ptr, ptr %2, align 8, !tbaa !24
  %24 = getelementptr inbounds nuw %struct.test_fixture, ptr %23, i32 0, i32 1
  %25 = load i32, ptr %24, align 8, !tbaa !27
  %26 = icmp ne i32 %25, 0
  br i1 %26, label %27, label %34

27:                                               ; preds = %22
  %28 = load ptr, ptr %4, align 8, !tbaa !4
  %29 = load ptr, ptr %2, align 8, !tbaa !24
  %30 = getelementptr inbounds nuw %struct.test_fixture, ptr %29, i32 0, i32 4
  %31 = load ptr, ptr %30, align 8, !tbaa !30
  %32 = call i32 @test_ptr_eq(ptr noundef @.str.14, i32 noundef 142, ptr noundef @.str.79, ptr noundef @.str.80, ptr noundef %28, ptr noundef %31)
  %33 = icmp ne i32 %32, 0
  br label %34

34:                                               ; preds = %27, %22
  %35 = phi i1 [ true, %22 ], [ %33, %27 ]
  br label %36

36:                                               ; preds = %34, %1
  %37 = phi i1 [ false, %1 ], [ %35, %34 ]
  %38 = zext i1 %37 to i32
  call void @llvm.lifetime.end.p0(i64 8, ptr %4) #7
  call void @llvm.lifetime.end.p0(i64 4, ptr %3) #7
  ret i32 %38
}

; Function Attrs: nounwind uwtable
define internal void @tear_down(ptr noundef %0) #0 {
  %2 = alloca ptr, align 8
  store ptr %0, ptr %2, align 8, !tbaa !24
  %3 = load ptr, ptr %2, align 8, !tbaa !24
  %4 = getelementptr inbounds nuw %struct.test_fixture, ptr %3, i32 0, i32 3
  %5 = load ptr, ptr %4, align 8, !tbaa !31
  call void @OSSL_CMP_MSG_free(ptr noundef %5)
  %6 = load ptr, ptr %2, align 8, !tbaa !24
  %7 = getelementptr inbounds nuw %struct.test_fixture, ptr %6, i32 0, i32 2
  %8 = load ptr, ptr %7, align 8, !tbaa !32
  call void @OSSL_CMP_CTX_free(ptr noundef %8)
  %9 = load ptr, ptr %2, align 8, !tbaa !24
  call void @CRYPTO_free(ptr noundef %9, ptr noundef @.str.14, i32 noundef 47)
  ret void
}

; Function Attrs: nounwind uwtable
define internal i32 @add_trusted(ptr noundef %0, ptr noundef %1) #0 {
  %3 = alloca ptr, align 8
  %4 = alloca ptr, align 8
  store ptr %0, ptr %3, align 8, !tbaa !61
  store ptr %1, ptr %4, align 8, !tbaa !4
  %5 = load ptr, ptr %3, align 8, !tbaa !61
  %6 = call ptr @OSSL_CMP_CTX_get0_trustedStore(ptr noundef %5)
  %7 = load ptr, ptr %4, align 8, !tbaa !4
  %8 = call i32 @X509_STORE_add_cert(ptr noundef %6, ptr noundef %7)
  ret i32 %8
}

; Function Attrs: nounwind uwtable
define internal i32 @test_validate_msg_signature_partial_chain(i32 noundef %0) #0 {
  %2 = alloca i32, align 4
  %3 = alloca i32, align 4
  %4 = alloca ptr, align 8
  %5 = alloca ptr, align 8
  %6 = alloca i32, align 4
  %7 = alloca i32, align 4
  %8 = alloca ptr, align 8
  store i32 %0, ptr %3, align 4, !tbaa !26
  call void @llvm.lifetime.start.p0(i64 8, ptr %4) #7
  call void @llvm.lifetime.start.p0(i64 8, ptr %5) #7
  %9 = call ptr @set_up(ptr noundef @__func__.test_validate_msg_signature_partial_chain)
  store ptr %9, ptr %5, align 8, !tbaa !24
  call void @llvm.lifetime.start.p0(i64 4, ptr %6) #7
  store i32 0, ptr %6, align 4, !tbaa !26
  %10 = load ptr, ptr %5, align 8, !tbaa !24
  %11 = icmp eq ptr %10, null
  br i1 %11, label %12, label %13

12:                                               ; preds = %1
  store i32 0, ptr %2, align 4
  store i32 1, ptr %7, align 4
  br label %66

13:                                               ; preds = %1
  %14 = load ptr, ptr @srvcert, align 8, !tbaa !4
  %15 = load ptr, ptr %5, align 8, !tbaa !24
  %16 = getelementptr inbounds nuw %struct.test_fixture, ptr %15, i32 0, i32 4
  store ptr %14, ptr %16, align 8, !tbaa !30
  %17 = load ptr, ptr %5, align 8, !tbaa !24
  %18 = getelementptr inbounds nuw %struct.test_fixture, ptr %17, i32 0, i32 2
  %19 = load ptr, ptr %18, align 8, !tbaa !32
  %20 = call ptr @OSSL_CMP_CTX_get0_trustedStore(ptr noundef %19)
  store ptr %20, ptr %4, align 8, !tbaa !39
  %21 = load i32, ptr %3, align 4, !tbaa !26
  %22 = icmp ne i32 %21, 0
  %23 = xor i1 %22, true
  %24 = zext i1 %23 to i32
  %25 = load ptr, ptr %5, align 8, !tbaa !24
  %26 = getelementptr inbounds nuw %struct.test_fixture, ptr %25, i32 0, i32 1
  store i32 %24, ptr %26, align 8, !tbaa !27
  %27 = load ptr, ptr %4, align 8, !tbaa !39
  %28 = icmp eq ptr %27, null
  br i1 %28, label %44, label %29

29:                                               ; preds = %13
  %30 = load ptr, ptr @ir_protected_f, align 8, !tbaa !23
  %31 = load ptr, ptr @libctx, align 8, !tbaa !13
  %32 = call ptr @load_pkimsg(ptr noundef %30, ptr noundef %31)
  %33 = load ptr, ptr %5, align 8, !tbaa !24
  %34 = getelementptr inbounds nuw %struct.test_fixture, ptr %33, i32 0, i32 3
  store ptr %32, ptr %34, align 8, !tbaa !31
  %35 = call i32 @test_ptr(ptr noundef @.str.14, i32 noundef 232, ptr noundef @.str.77, ptr noundef %32)
  %36 = icmp ne i32 %35, 0
  br i1 %36, label %37, label %44

37:                                               ; preds = %29
  %38 = load ptr, ptr %5, align 8, !tbaa !24
  %39 = getelementptr inbounds nuw %struct.test_fixture, ptr %38, i32 0, i32 2
  %40 = load ptr, ptr %39, align 8, !tbaa !32
  %41 = load ptr, ptr @srvcert, align 8, !tbaa !4
  %42 = call i32 @add_trusted(ptr noundef %40, ptr noundef %41)
  %43 = icmp ne i32 %42, 0
  br i1 %43, label %46, label %44

44:                                               ; preds = %37, %29, %13
  %45 = load ptr, ptr %5, align 8, !tbaa !24
  call void @tear_down(ptr noundef %45)
  store ptr null, ptr %5, align 8, !tbaa !24
  br label %57

46:                                               ; preds = %37
  call void @llvm.lifetime.start.p0(i64 8, ptr %8) #7
  %47 = load ptr, ptr %4, align 8, !tbaa !39
  %48 = call ptr @X509_STORE_get0_param(ptr noundef %47)
  store ptr %48, ptr %8, align 8, !tbaa !59
  %49 = load ptr, ptr %8, align 8, !tbaa !59
  %50 = call i32 @X509_VERIFY_PARAM_set_flags(ptr noundef %49, i64 noundef 524288)
  %51 = load i32, ptr %3, align 4, !tbaa !26
  %52 = icmp ne i32 %51, 0
  br i1 %52, label %53, label %56

53:                                               ; preds = %46
  %54 = load ptr, ptr %8, align 8, !tbaa !59
  %55 = load i64, ptr @test_time_after_expiration, align 8, !tbaa !22
  call void @X509_VERIFY_PARAM_set_time(ptr noundef %54, i64 noundef %55)
  br label %56

56:                                               ; preds = %53, %46
  call void @llvm.lifetime.end.p0(i64 8, ptr %8) #7
  br label %57

57:                                               ; preds = %56, %44
  %58 = load ptr, ptr %5, align 8, !tbaa !24
  %59 = icmp ne ptr %58, null
  br i1 %59, label %60, label %64

60:                                               ; preds = %57
  %61 = load ptr, ptr %5, align 8, !tbaa !24
  %62 = call i32 @execute_validate_msg_test(ptr noundef %61)
  store i32 %62, ptr %6, align 4, !tbaa !26
  %63 = load ptr, ptr %5, align 8, !tbaa !24
  call void @tear_down(ptr noundef %63)
  br label %64

64:                                               ; preds = %60, %57
  %65 = load i32, ptr %6, align 4, !tbaa !26
  store i32 %65, ptr %2, align 4
  store i32 1, ptr %7, align 4
  br label %66

66:                                               ; preds = %64, %12
  call void @llvm.lifetime.end.p0(i64 4, ptr %6) #7
  call void @llvm.lifetime.end.p0(i64 8, ptr %5) #7
  call void @llvm.lifetime.end.p0(i64 8, ptr %4) #7
  %67 = load i32, ptr %2, align 4
  ret i32 %67
}