; Function Attrs: nounwind uwtable
define internal fastcc range(i32 0, 2) i32 @test_validate_msg_signature_partial_chain(i32 noundef range(i32 0, 2) %0) unnamed_addr #0 {
  %2 = tail call fastcc ptr @set_up(ptr noundef nonnull @__func__.test_validate_msg_signature_partial_chain)
  %3 = icmp eq ptr %2, null
  br i1 %3, label %47, label %4

4:                                                ; preds = %1
  %5 = load ptr, ptr @srvcert, align 8, !tbaa !4
  %6 = getelementptr inbounds nuw i8, ptr %2, i64 32
  store ptr %5, ptr %6, align 8, !tbaa !29
  %7 = getelementptr inbounds nuw i8, ptr %2, i64 16
  %8 = load ptr, ptr %7, align 8, !tbaa !28
  %9 = tail call ptr @OSSL_CMP_CTX_get0_trustedStore(ptr noundef %8) #7
  %.not = icmp eq i32 %0, 0
  %10 = xor i32 %0, 1
  %11 = getelementptr inbounds nuw i8, ptr %2, i64 8
  store i32 %10, ptr %11, align 8, !tbaa !24
  %12 = icmp eq ptr %9, null
  br i1 %12, label %29, label %13

13:                                               ; preds = %4
  %14 = load ptr, ptr @ir_protected_f, align 8, !tbaa !23
  %15 = load ptr, ptr @libctx, align 8, !tbaa !13
  %16 = tail call ptr @load_pkimsg(ptr noundef %14, ptr noundef %15) #7
  %17 = getelementptr inbounds nuw i8, ptr %2, i64 24
  store ptr %16, ptr %17, align 8, !tbaa !27
  %18 = tail call i32 @test_ptr(ptr noundef nonnull @.str.14, i32 noundef 232, ptr noundef nonnull @.str.77, ptr noundef %16) #7
  %.not21 = icmp eq i32 %18, 0
  br i1 %.not21, label %29, label %19

19:                                               ; preds = %13
  %20 = load ptr, ptr %7, align 8, !tbaa !28
  %21 = load ptr, ptr @srvcert, align 8, !tbaa !4
  %22 = tail call ptr @OSSL_CMP_CTX_get0_trustedStore(ptr noundef %20) #7
  %23 = tail call i32 @X509_STORE_add_cert(ptr noundef %22, ptr noundef %21) #7
  %.not22 = icmp eq i32 %23, 0
  br i1 %.not22, label %29, label %24

24:                                               ; preds = %19
  %25 = tail call ptr @X509_STORE_get0_param(ptr noundef nonnull %9) #7
  %26 = tail call i32 @X509_VERIFY_PARAM_set_flags(ptr noundef %25, i64 noundef 524288) #7
  br i1 %.not, label %31, label %27

27:                                               ; preds = %24
  %28 = load i64, ptr @test_time_after_expiration, align 8, !tbaa !22
  tail call void @X509_VERIFY_PARAM_set_time(ptr noundef %25, i64 noundef %28) #7
  br label %31

29:                                               ; preds = %4, %13, %19
  %30 = getelementptr inbounds nuw i8, ptr %2, i64 24
  br label %.sink.split

31:                                               ; preds = %27, %24
  %32 = load i32, ptr %11, align 8, !tbaa !24
  %33 = load ptr, ptr %7, align 8, !tbaa !28
  %34 = load ptr, ptr %17, align 8, !tbaa !27
  %35 = tail call i32 @ossl_cmp_msg_check_update(ptr noundef %33, ptr noundef %34, ptr noundef null, i32 noundef 0) #7
  %36 = tail call i32 @test_int_eq(ptr noundef nonnull @.str.14, i32 noundef 139, ptr noundef nonnull @.str.75, ptr noundef nonnull @.str.78, i32 noundef %32, i32 noundef %35) #7
  %37 = load ptr, ptr %7, align 8, !tbaa !28
  %38 = tail call ptr @OSSL_CMP_CTX_get0_validatedSrvCert(ptr noundef %37) #7
  %.not.i = icmp eq i32 %36, 0
  br i1 %.not.i, label %.sink.split, label %39

39:                                               ; preds = %31
  %40 = load i32, ptr %11, align 8, !tbaa !24
  %.not7.i = icmp eq i32 %40, 0
  br i1 %.not7.i, label %.sink.split, label %41

41:                                               ; preds = %39
  %42 = load ptr, ptr %6, align 8, !tbaa !29
  %43 = tail call i32 @test_ptr_eq(ptr noundef nonnull @.str.14, i32 noundef 142, ptr noundef nonnull @.str.79, ptr noundef nonnull @.str.80, ptr noundef %38, ptr noundef %42) #7
  %44 = icmp ne i32 %43, 0
  %45 = zext i1 %44 to i32
  br label %.sink.split

.sink.split:                                      ; preds = %41, %39, %31, %29
  %.sink.in = phi ptr [ %30, %29 ], [ %17, %31 ], [ %17, %39 ], [ %17, %41 ]
  %.0.ph = phi i32 [ 0, %29 ], [ 0, %31 ], [ 1, %39 ], [ %45, %41 ]
  %.sink = load ptr, ptr %.sink.in, align 8, !tbaa !27
  tail call void @OSSL_CMP_MSG_free(ptr noundef %.sink) #7
  %46 = load ptr, ptr %7, align 8, !tbaa !28
  tail call void @OSSL_CMP_CTX_free(ptr noundef %46) #7
  tail call void @CRYPTO_free(ptr noundef nonnull %2, ptr noundef nonnull @.str.14, i32 noundef 47) #7
  br label %47

47:                                               ; preds = %.sink.split, %1
  %.0 = phi i32 [ 0, %1 ], [ %.0.ph, %.sink.split ]
  ret i32 %.0
}